; Function Attrs: null_pointer_is_valid sspstrong uwtable
define internal noundef i32 @cmp_matches(ptr noundef readonly captures(none) %0, ptr noundef %1, ptr noundef writeonly captures(none) initializes((0, 1)) %2) #0 {
  %4 = alloca i64, align 8
  call void @llvm.lifetime.start.p0(i64 8, ptr nonnull %4) #12
  %5 = getelementptr inbounds nuw i8, ptr %0, i64 8
  %6 = load ptr, ptr %5, align 8
  %7 = call ptr @g_bytes_get_data(ptr noundef %6, ptr noundef nonnull %4)
  %8 = load i64, ptr %4, align 8
  %9 = call zeroext i1 @ws_regex_matches_length(ptr noundef %1, ptr noundef %7, i64 noundef %8)
  %10 = zext i1 %9 to i8
  store i8 %10, ptr %2, align 1
  call void @llvm.lifetime.end.p0(i64 8, ptr nonnull %4) #12
  ret i32 0
}